; Function Attrs: mustprogress uwtable
define internal void @_ZN12_GLOBAL__N_119SynthQuickLogicPass11clear_flagsEv(ptr noundef nonnull align 8 dereferenceable(413) %0) unnamed_addr #5 align 2 {
  %2 = getelementptr inbounds nuw i8, ptr %0, i64 184
  %3 = getelementptr inbounds nuw i8, ptr %0, i64 192
  %4 = load i64, ptr %3, align 8, !tbaa !16
  %5 = tail call noundef nonnull align 8 dereferenceable(32) ptr @_ZNSt7__cxx1112basic_stringIcSt11char_traitsIcESaIcEE10_M_replaceEmmPKcm(ptr noundef nonnull align 8 dereferenceable(32) %2, i64 noundef 0, i64 noundef %4, ptr noundef nonnull @.str.35, i64 noundef 9)
  %6 = getelementptr inbounds nuw i8, ptr %0, i64 216
  %7 = getelementptr inbounds nuw i8, ptr %0, i64 224
  %8 = load i64, ptr %7, align 8, !tbaa !16
  %9 = tail call noundef nonnull align 8 dereferenceable(32) ptr @_ZNSt7__cxx1112basic_stringIcSt11char_traitsIcESaIcEE10_M_replaceEmmPKcm(ptr noundef nonnull align 8 dereferenceable(32) %6, i64 noundef 0, i64 noundef %8, ptr noundef nonnull @.str.36, i64 noundef 0)
  %10 = getelementptr inbounds nuw i8, ptr %0, i64 248
  %11 = getelementptr inbounds nuw i8, ptr %0, i64 256
  %12 = load i64, ptr %11, align 8, !tbaa !16
  %13 = tail call noundef nonnull align 8 dereferenceable(32) ptr @_ZNSt7__cxx1112basic_stringIcSt11char_traitsIcESaIcEE10_M_replaceEmmPKcm(ptr noundef nonnull align 8 dereferenceable(32) %10, i64 noundef 0, i64 noundef %12, ptr noundef nonnull @.str.36, i64 noundef 0)
  %14 = getelementptr inbounds nuw i8, ptr %0, i64 344
  %15 = getelementptr inbounds nuw i8, ptr %0, i64 352
  %16 = load i64, ptr %15, align 8, !tbaa !16
  %17 = tail call noundef nonnull align 8 dereferenceable(32) ptr @_ZNSt7__cxx1112basic_stringIcSt11char_traitsIcESaIcEE10_M_replaceEmmPKcm(ptr noundef nonnull align 8 dereferenceable(32) %14, i64 noundef 0, i64 noundef %16, ptr noundef nonnull @.str.36, i64 noundef 0)
  %18 = getelementptr inbounds nuw i8, ptr %0, i64 312
  %19 = getelementptr inbounds nuw i8, ptr %0, i64 320
  %20 = load i64, ptr %19, align 8, !tbaa !16
  %21 = tail call noundef nonnull align 8 dereferenceable(32) ptr @_ZNSt7__cxx1112basic_stringIcSt11char_traitsIcESaIcEE10_M_replaceEmmPKcm(ptr noundef nonnull align 8 dereferenceable(32) %18, i64 noundef 0, i64 noundef %20, ptr noundef nonnull @.str.36, i64 noundef 0)
  %22 = getelementptr inbounds nuw i8, ptr %0, i64 280
  %23 = getelementptr inbounds nuw i8, ptr %0, i64 288
  %24 = load i64, ptr %23, align 8, !tbaa !16
  %25 = tail call noundef nonnull align 8 dereferenceable(32) ptr @_ZNSt7__cxx1112basic_stringIcSt11char_traitsIcESaIcEE10_M_replaceEmmPKcm(ptr noundef nonnull align 8 dereferenceable(32) %22, i64 noundef 0, i64 noundef %24, ptr noundef nonnull @.str.37, i64 noundef 3)
  %26 = getelementptr inbounds nuw i8, ptr %0, i64 408
  store i8 1, ptr %26, align 8, !tbaa !20
  %27 = getelementptr inbounds nuw i8, ptr %0, i64 409
  store i8 1, ptr %27, align 1, !tbaa !28
  %28 = getelementptr inbounds nuw i8, ptr %0, i64 410
  store i8 0, ptr %28, align 2, !tbaa !29
  %29 = getelementptr inbounds nuw i8, ptr %0, i64 411
  store i8 0, ptr %29, align 1, !tbaa !30
  %30 = getelementptr inbounds nuw i8, ptr %0, i64 376
  %31 = getelementptr inbounds nuw i8, ptr %0, i64 384
  %32 = load i64, ptr %31, align 8, !tbaa !16
  %33 = tail call noundef nonnull align 8 dereferenceable(32) ptr @_ZNSt7__cxx1112basic_stringIcSt11char_traitsIcESaIcEE10_M_replaceEmmPKcm(ptr noundef nonnull align 8 dereferenceable(32) %30, i64 noundef 0, i64 noundef %32, ptr noundef nonnull @.str.38, i64 noundef 13)
  %34 = getelementptr inbounds nuw i8, ptr %0, i64 412
  store i8 1, ptr %34, align 4, !tbaa !31
  ret void
}